; Function Attrs: mustprogress nounwind uwtable
define void @_ZN7testing8internal25UntypedFunctionMockerBaseD2Ev(ptr noundef nonnull align 8 dereferenceable(72) %this) unnamed_addr #7 align 2 personality ptr @__gxx_personality_v0 {
entry:
  store ptr getelementptr inbounds ({ [10 x ptr] }, ptr @_ZTVN7testing8internal25UntypedFunctionMockerBaseE, i64 0, i32 0, i64 2), ptr %this, align 8
  %untyped_expectations_ = getelementptr inbounds i8, ptr %this, i64 48
  tail call void @_ZNSt6vectorIN7testing8internal10linked_ptrINS1_15ExpectationBaseEEESaIS4_EED2Ev(ptr noundef nonnull align 8 dereferenceable(24) %untyped_expectations_) #26
  %untyped_on_call_specs_ = getelementptr inbounds i8, ptr %this, i64 24
  %0 = load ptr, ptr %untyped_on_call_specs_, align 8
  %tobool.not.i.i.i = icmp eq ptr %0, null
  br i1 %tobool.not.i.i.i, label %_ZNSt6vectorIPKvSaIS1_EED2Ev.exit, label %if.then.i.i.i

if.then.i.i.i:                                    ; preds = %entry
  tail call void @_ZdlPv(ptr noundef nonnull %0) #28
  br label %_ZNSt6vectorIPKvSaIS1_EED2Ev.exit

_ZNSt6vectorIPKvSaIS1_EED2Ev.exit:                ; preds = %entry, %if.then.i.i.i
  ret void
}